target datalayout = "e-m:e-p270:32:32-p271:32:32-p272:64:64-i64:64-i128:128-f80:128-n8:16:32:64-S128"
target triple = "x86_64-pc-linux-gnu"

; Function Attrs: alwaysinline nounwind willreturn memory(none) uwtable
define internal zeroext i8 @av_clip_uint8_c(i32 noundef %0) #8 {
  %2 = alloca i8, align 1
  %3 = alloca i32, align 4
  store i32 %0, ptr %3, align 4, !tbaa !11
  %4 = load i32, ptr %3, align 4, !tbaa !11
  %5 = and i32 %4, -256
  %6 = icmp ne i32 %5, 0
  br i1 %6, label %7, label %12

7:                                                ; preds = %1
  %8 = load i32, ptr %3, align 4, !tbaa !11
  %9 = xor i32 %8, -1
  %10 = ashr i32 %9, 31
  %11 = trunc i32 %10 to i8
  store i8 %11, ptr %2, align 1
  br label %15

12:                                               ; preds = %1
  %13 = load i32, ptr %3, align 4, !tbaa !11
  %14 = trunc i32 %13 to i8
  store i8 %14, ptr %2, align 1
  br label %15

15:                                               ; preds = %12, %7
  %16 = load i8, ptr %2, align 1
  ret i8 %16
}

; Function Attrs: nounwind uwtable
define internal void @filter_7x7(ptr noundef %0, i32 noundef %1, float noundef %2, float noundef %3, ptr noundef %4, ptr noundef %5, i32 noundef %6, i32 noundef %7, i32 noundef %8, i32 noundef %9, i32 noundef %10) #0 {
  %12 = alloca ptr, align 8
  %13 = alloca i32, align 4
  %14 = alloca float, align 4
  %15 = alloca float, align 4
  %16 = alloca ptr, align 8
  %17 = alloca ptr, align 8
  %18 = alloca i32, align 4
  %19 = alloca i32, align 4
  %20 = alloca i32, align 4
  %21 = alloca i32, align 4
  %22 = alloca i32, align 4
  %23 = alloca i32, align 4
  %24 = alloca i32, align 4
  %25 = alloca i32, align 4
  store ptr %0, ptr %12, align 8, !tbaa !9
  store i32 %1, ptr %13, align 4, !tbaa !11
  store float %2, ptr %14, align 4, !tbaa !52
  store float %3, ptr %15, align 4, !tbaa !52
  store ptr %4, ptr %16, align 8, !tbaa !53
  store ptr %5, ptr %17, align 8, !tbaa !89
  store i32 %6, ptr %18, align 4, !tbaa !11
  store i32 %7, ptr %19, align 4, !tbaa !11
  store i32 %8, ptr %20, align 4, !tbaa !11
  store i32 %9, ptr %21, align 4, !tbaa !11
  store i32 %10, ptr %22, align 4, !tbaa !11
  call void @llvm.lifetime.start.p0(i64 4, ptr %23) #10
  store i32 0, ptr %23, align 4, !tbaa !11
  br label %26

26:                                               ; preds = %70, %11
  %27 = load i32, ptr %23, align 4, !tbaa !11
  %28 = load i32, ptr %13, align 4, !tbaa !11
  %29 = icmp slt i32 %27, %28
  br i1 %29, label %30, label %73

30:                                               ; preds = %26
  call void @llvm.lifetime.start.p0(i64 4, ptr %24) #10
  call void @llvm.lifetime.start.p0(i64 4, ptr %25) #10
  store i32 0, ptr %25, align 4, !tbaa !11
  store i32 0, ptr %24, align 4, !tbaa !11
  br label %31

31:                                               ; preds = %53, %30
  %32 = load i32, ptr %24, align 4, !tbaa !11
  %33 = icmp slt i32 %32, 49
  br i1 %33, label %34, label %56

34:                                               ; preds = %31
  %35 = load ptr, ptr %17, align 8, !tbaa !89
  %36 = load i32, ptr %24, align 4, !tbaa !11
  %37 = sext i32 %36 to i64
  %38 = getelementptr inbounds ptr, ptr %35, i64 %37
  %39 = load ptr, ptr %38, align 8, !tbaa !9
  %40 = load i32, ptr %23, align 4, !tbaa !11
  %41 = sext i32 %40 to i64
  %42 = getelementptr inbounds i8, ptr %39, i64 %41
  %43 = load i8, ptr %42, align 1, !tbaa !91
  %44 = zext i8 %43 to i32
  %45 = load ptr, ptr %16, align 8, !tbaa !53
  %46 = load i32, ptr %24, align 4, !tbaa !11
  %47 = sext i32 %46 to i64
  %48 = getelementptr inbounds i32, ptr %45, i64 %47
  %49 = load i32, ptr %48, align 4, !tbaa !11
  %50 = mul nsw i32 %44, %49
  %51 = load i32, ptr %25, align 4, !tbaa !11
  %52 = add nsw i32 %51, %50
  store i32 %52, ptr %25, align 4, !tbaa !11
  br label %53

53:                                               ; preds = %34
  %54 = load i32, ptr %24, align 4, !tbaa !11
  %55 = add nsw i32 %54, 1
  store i32 %55, ptr %24, align 4, !tbaa !11
  br label %31, !llvm.loop !105

56:                                               ; preds = %31
  %57 = load i32, ptr %25, align 4, !tbaa !11
  %58 = sitofp i32 %57 to float
  %59 = load float, ptr %14, align 4, !tbaa !52
  %60 = load float, ptr %15, align 4, !tbaa !52
  %61 = call nsz float @llvm.fmuladd.f32(float %58, float %59, float %60)
  %62 = fadd nsz float %61, 5.000000e-01
  %63 = fptosi float %62 to i32
  store i32 %63, ptr %25, align 4, !tbaa !11
  %64 = load i32, ptr %25, align 4, !tbaa !11
  %65 = call zeroext i8 @av_clip_uint8_c(i32 noundef %64) #12
  %66 = load ptr, ptr %12, align 8, !tbaa !9
  %67 = load i32, ptr %23, align 4, !tbaa !11
  %68 = sext i32 %67 to i64
  %69 = getelementptr inbounds i8, ptr %66, i64 %68
  store i8 %65, ptr %69, align 1, !tbaa !91
  call void @llvm.lifetime.end.p0(i64 4, ptr %25) #10
  call void @llvm.lifetime.end.p0(i64 4, ptr %24) #10
  br label %70

70:                                               ; preds = %56
  %71 = load i32, ptr %23, align 4, !tbaa !11
  %72 = add nsw i32 %71, 1
  store i32 %72, ptr %23, align 4, !tbaa !11
  br label %26, !llvm.loop !106

73:                                               ; preds = %26
  call void @llvm.lifetime.end.p0(i64 4, ptr %23) #10
  ret void
}