; Function Attrs: nofree norecurse nosync nounwind memory(read, argmem: readwrite, inaccessiblemem: none) uwtable
define internal void @filter_7x7(ptr noundef writeonly captures(none) %0, i32 noundef %1, float noundef %2, float noundef %3, ptr noundef readonly captures(none) %4, ptr noundef readonly captures(none) %5, i32 %6, i32 %7, i32 %8, i32 %9, i32 %10) #6 {
  %12 = icmp sgt i32 %1, 0
  br i1 %12, label %.preheader.preheader, label %._crit_edge

.preheader.preheader:                             ; preds = %11
  %wide.trip.count = zext nneg i32 %1 to i64
  br label %.preheader

.preheader:                                       ; preds = %.preheader.preheader, %23
  %indvars.iv22 = phi i64 [ 0, %.preheader.preheader ], [ %indvars.iv.next23, %23 ]
  br label %13

13:                                               ; preds = %.preheader, %13
  %indvars.iv = phi i64 [ 0, %.preheader ], [ %indvars.iv.next, %13 ]
  %.019 = phi i32 [ 0, %.preheader ], [ %22, %13 ]
  %14 = getelementptr inbounds nuw ptr, ptr %5, i64 %indvars.iv
  %15 = load ptr, ptr %14, align 8, !tbaa !46
  %16 = getelementptr inbounds nuw i8, ptr %15, i64 %indvars.iv22
  %17 = load i8, ptr %16, align 1, !tbaa !82
  %18 = zext i8 %17 to i32
  %19 = getelementptr inbounds nuw i32, ptr %4, i64 %indvars.iv
  %20 = load i32, ptr %19, align 4, !tbaa !39
  %21 = mul nsw i32 %20, %18
  %22 = add nsw i32 %21, %.019
  %indvars.iv.next = add nuw nsw i64 %indvars.iv, 1
  %exitcond.not = icmp eq i64 %indvars.iv.next, 49
  br i1 %exitcond.not, label %23, label %13, !llvm.loop !96

23:                                               ; preds = %13
  %24 = sitofp i32 %22 to float
  %25 = tail call nsz float @llvm.fmuladd.f32(float %24, float %2, float %3)
  %26 = fadd nsz float %25, 5.000000e-01
  %27 = fptosi float %26 to i32
  %.not.i = icmp ult i32 %27, 256
  %isnotneg.i = icmp sgt i32 %27, -1
  %28 = sext i1 %isnotneg.i to i8
  %29 = trunc nuw i32 %27 to i8
  %.0.i = select i1 %.not.i, i8 %29, i8 %28
  %30 = getelementptr inbounds nuw i8, ptr %0, i64 %indvars.iv22
  store i8 %.0.i, ptr %30, align 1, !tbaa !82
  %indvars.iv.next23 = add nuw nsw i64 %indvars.iv22, 1
  %exitcond25.not = icmp eq i64 %indvars.iv.next23, %wide.trip.count
  br i1 %exitcond25.not, label %._crit_edge, label %.preheader, !llvm.loop !97

._crit_edge:                                      ; preds = %23, %11
  ret void
}